Certificate:
    Data:
        Version: 3 (0x2)
        Serial Number: 1 (0x1)
        Signature Algorithm: sha256WithRSAEncryption
        Issuer: O=Test Org, CN=Test Org rauc CA Development
        Validity
            Not Before: Jan  1 00:00:00 1970 GMT
            Not After : Dec 31 23:59:59 9999 GMT
        Subject: O=Test Org, CN=Test Org rauc CA Development
        Subject Public Key Info:
            Public Key Algorithm: rsaEncryption
                RSA Public-Key: (2048 bit)
                Modulus:
                    00:cd:81:de:bb:3b:df:78:81:5f:db:92:ba:9a:00:
                    8c:ea:7f:19:27:c9:06:6f:6d:f4:8e:1f:62:84:55:
                    0c:5b:7e:57:30:f1:cd:e9:93:d4:d2:49:69:f3:68:
                    55:ba:1f:ef:b8:e9:36:ed:b3:c5:ce:88:a1:b2:a4:
                    cc:2f:a7:30:ea:b3:f1:90:3c:c2:b5:da:df:bf:71:
                    69:bb:39:03:82:7c:39:9b:a5:38:41:75:6d:ad:f7:
                    dc:76:ec:58:bc:5c:04:cc:30:13:ad:e3:68:6d:25:
                    10:39:ea:fb:6e:e8:98:3d:60:d4:af:bd:a4:21:e0:
                    04:4f:92:86:06:53:6c:3d:74:25:ac:fd:9f:3c:ec:
                    87:6e:f9:11:f1:5f:5f:c7:e9:1c:2e:7c:4c:c7:50:
                    d4:7d:de:00:e4:03:7d:f4:d6:91:2d:db:9d:3a:38:
                    04:12:c4:16:69:a6:38:92:bd:cc:75:88:3e:fd:8a:
                    1b:fe:e8:72:fa:d3:87:11:b9:a9:2b:a4:a2:7f:57:
                    62:45:ff:c2:e6:65:c2:18:f6:da:2f:2e:ed:0a:7b:
                    b9:ef:82:3c:9f:1b:52:3f:92:c7:d3:a0:7c:1d:1f:
                    18:80:c0:d9:17:a2:ba:50:41:25:a6:5f:87:7c:b2:
                    6f:1a:69:05:ae:14:ac:d4:31:ab:20:1a:90:c8:8a:
                    2e:25
                Exponent: 65537 (0x10001)
        X509v3 extensions:
            X509v3 Subject Key Identifier: 
                E2:B1:3A:E1:62:5E:DF:60:33:8A:5D:3A:1B:9A:B6:BA:E8:0D:DB:04
            X509v3 Authority Key Identifier: 
                keyid:E2:B1:3A:E1:62:5E:DF:60:33:8A:5D:3A:1B:9A:B6:BA:E8:0D:DB:04
                DirName:/O=Test Org/CN=Test Org rauc CA Development
                serial:01

            X509v3 Basic Constraints: 
                CA:TRUE
    Signature Algorithm: sha256WithRSAEncryption
         c2:c4:98:17:55:67:4f:05:35:6a:25:18:13:81:19:8c:8d:d4:
         fe:b7:d8:e7:10:04:22:f6:80:0a:ea:68:5a:18:62:75:7c:4e:
         7d:54:14:e4:71:e3:f8:a6:68:09:e4:b8:df:ee:fa:65:3d:a5:
         4e:2e:1f:0e:67:62:14:02:28:26:05:db:2e:05:1b:22:09:83:
         8b:ae:eb:99:db:31:11:a4:e5:ea:cf:0d:df:a9:d4:4d:8f:5a:
         5d:d0:3a:76:d0:35:b9:59:fc:0e:5c:5a:78:d3:50:02:da:4e:
         72:6d:a7:e7:35:b3:68:73:f7:55:d7:81:be:e6:c6:34:70:dd:
         9c:ae:b5:01:10:6e:39:ca:f3:2e:a6:5a:5e:21:42:0e:54:55:
         a2:28:41:f3:8a:6a:08:86:41:2b:af:e1:22:7e:86:d9:37:56:
         dd:80:22:7d:55:01:b2:58:2f:3b:7a:10:4f:17:e8:cf:fd:de:
         59:d5:62:9f:70:6a:31:3e:20:83:3d:d4:75:db:d7:ec:60:5d:
         8d:a6:34:43:2d:c2:29:de:c8:08:d6:5a:90:6f:58:e8:8b:a7:
         bc:8a:d3:9d:63:24:fb:0a:c9:15:3a:b5:69:cd:de:b9:b9:79:
         2e:21:4e:4e:d0:42:32:c6:4b:75:01:ff:d4:e0:5d:2c:88:fa:
         45:7c:7f:8b
-----BEGIN CERTIFICATE-----
MIIDhjCCAm6gAwIBAgIBATANBgkqhkiG9w0BAQsFADA6MREwDwYDVQQKDAhUZXN0
IE9yZzElMCMGA1UEAwwcVGVzdCBPcmcgcmF1YyBDQSBEZXZlbG9wbWVudDAgFw03
MDAxMDEwMDAwMDBaGA85OTk5MTIzMTIzNTk1OVowOjERMA8GA1UECgwIVGVzdCBP
cmcxJTAjBgNVBAMMHFRlc3QgT3JnIHJhdWMgQ0EgRGV2ZWxvcG1lbnQwggEiMA0G
CSqGSIb3DQEBAQUAA4IBDwAwggEKAoIBAQDNgd67O994gV/bkrqaAIzqfxknyQZv
bfSOH2KEVQxbflcw8c3pk9TSSWnzaFW6H++46Tbts8XOiKGypMwvpzDqs/GQPMK1
2t+/cWm7OQOCfDmbpThBdW2t99x27Fi8XATMMBOt42htJRA56vtu6Jg9YNSvvaQh
4ARPkoYGU2w9dCWs/Z887Idu+RHxX1/H6RwufEzHUNR93gDkA3301pEt2506OAQS
xBZppjiSvcx1iD79ihv+6HL604cRuakrpKJ/V2JF/8LmZcIY9tovLu0Ke7nvgjyf
G1I/ksfToHwdHxiAwNkXorpQQSWmX4d8sm8aaQWuFKzUMasgGpDIii4lAgMBAAGj
gZQwgZEwHQYDVR0OBBYEFOKxOuFiXt9gM4pdOhuatrroDdsEMGIGA1UdIwRbMFmA
FOKxOuFiXt9gM4pdOhuatrroDdsEoT6kPDA6MREwDwYDVQQKDAhUZXN0IE9yZzEl
MCMGA1UEAwwcVGVzdCBPcmcgcmF1YyBDQSBEZXZlbG9wbWVudIIBATAMBgNVHRME
BTADAQH/MA0GCSqGSIb3DQEBCwUAA4IBAQDCxJgXVWdPBTVqJRgTgRmMjdT+t9jn
EAQi9oAK6mhaGGJ1fE59VBTkceP4pmgJ5Ljf7vplPaVOLh8OZ2IUAigmBdsuBRsi
CYOLruuZ2zERpOXqzw3fqdRNj1pd0Dp20DW5WfwOXFp401AC2k5ybafnNbNoc/dV
14G+5sY0cN2crrUBEG45yvMuplpeIUIOVFWiKEHzimoIhkErr+EifobZN1bdgCJ9
VQGyWC87ehBPF+jP/d5Z1WKfcGoxPiCDPdR129fsYF2NpjRDLcIp3sgI1lqQb1jo
i6e8itOdYyT7CskVOrVpzd65uXkuIU5O0EIyxkt1Af/U4F0siPpFfH+L
-----END CERTIFICATE-----
